target datalayout = "e-m:e-p270:32:32-p271:32:32-p272:64:64-i64:64-i128:128-f80:128-n8:16:32:64-S128"
target triple = "x86_64-pc-linux-gnu"

%struct.ImVector.10 = type { i32, i32, ptr }
%struct.ImGuiTextIndex = type <{ %struct.ImVector.10, i32, [4 x i8] }>

; Function Attrs: inlinehint mustprogress nounwind uwtable
define internal noundef i32 @_ZL5ImMaxIiET_S0_S0_(i32 noundef %0, i32 noundef %1) #7 {
  %3 = alloca i32, align 4
  %4 = alloca i32, align 4
  store i32 %0, ptr %3, align 4, !tbaa !117
  store i32 %1, ptr %4, align 4, !tbaa !117
  %5 = load i32, ptr %3, align 4, !tbaa !117
  %6 = load i32, ptr %4, align 4, !tbaa !117
  %7 = icmp sge i32 %5, %6
  br i1 %7, label %8, label %10

8:                                                ; preds = %2
  %9 = load i32, ptr %3, align 4, !tbaa !117
  br label %12

10:                                               ; preds = %2
  %11 = load i32, ptr %4, align 4, !tbaa !117
  br label %12

12:                                               ; preds = %10, %8
  %13 = phi i32 [ %9, %8 ], [ %11, %10 ]
  ret i32 %13
}

; Function Attrs: mustprogress uwtable
define dso_local void @_ZN14ImGuiTextIndex6appendEPKcii(ptr noundef nonnull align 8 dereferenceable(20) %0, ptr noundef %1, i32 noundef %2, i32 noundef %3) #0 align 2 {
  %5 = alloca ptr, align 8
  %6 = alloca ptr, align 8
  %7 = alloca i32, align 4
  %8 = alloca i32, align 4
  %9 = alloca ptr, align 8
  %10 = alloca ptr, align 8
  %11 = alloca i32, align 4
  store ptr %0, ptr %5, align 8, !tbaa !367
  store ptr %1, ptr %6, align 8, !tbaa !254
  store i32 %2, ptr %7, align 4, !tbaa !117
  store i32 %3, ptr %8, align 4, !tbaa !117
  %12 = load ptr, ptr %5, align 8
  %13 = load i32, ptr %7, align 4, !tbaa !117
  %14 = load i32, ptr %8, align 4, !tbaa !117
  %15 = icmp eq i32 %13, %14
  br i1 %15, label %16, label %17

16:                                               ; preds = %4
  br label %73

17:                                               ; preds = %4
  %18 = getelementptr inbounds nuw %struct.ImGuiTextIndex, ptr %12, i32 0, i32 1
  %19 = load i32, ptr %18, align 8, !tbaa !369
  %20 = icmp eq i32 %19, 0
  br i1 %20, label %31, label %21

21:                                               ; preds = %17
  %22 = load ptr, ptr %6, align 8, !tbaa !254
  %23 = getelementptr inbounds nuw %struct.ImGuiTextIndex, ptr %12, i32 0, i32 1
  %24 = load i32, ptr %23, align 8, !tbaa !369
  %25 = sub nsw i32 %24, 1
  %26 = sext i32 %25 to i64
  %27 = getelementptr inbounds i8, ptr %22, i64 %26
  %28 = load i8, ptr %27, align 1, !tbaa !245
  %29 = sext i8 %28 to i32
  %30 = icmp eq i32 %29, 10
  br i1 %30, label %31, label %34

31:                                               ; preds = %21, %17
  %32 = getelementptr inbounds nuw %struct.ImGuiTextIndex, ptr %12, i32 0, i32 0
  %33 = getelementptr inbounds nuw %struct.ImGuiTextIndex, ptr %12, i32 0, i32 1
  call void @_ZN8ImVectorIiE9push_backERKi(ptr noundef nonnull align 8 dereferenceable(16) %32, ptr noundef nonnull align 4 dereferenceable(4) %33)
  br label %34

34:                                               ; preds = %31, %21
  call void @llvm.lifetime.start.p0(i64 8, ptr %9) #16
  %35 = load ptr, ptr %6, align 8, !tbaa !254
  %36 = load i32, ptr %8, align 4, !tbaa !117
  %37 = sext i32 %36 to i64
  %38 = getelementptr inbounds i8, ptr %35, i64 %37
  store ptr %38, ptr %9, align 8, !tbaa !254
  call void @llvm.lifetime.start.p0(i64 8, ptr %10) #16
  %39 = load ptr, ptr %6, align 8, !tbaa !254
  %40 = load i32, ptr %7, align 4, !tbaa !117
  %41 = sext i32 %40 to i64
  %42 = getelementptr inbounds i8, ptr %39, i64 %41
  store ptr %42, ptr %10, align 8, !tbaa !254
  br label %43

43:                                               ; preds = %66, %34
  %44 = load ptr, ptr %10, align 8, !tbaa !254
  %45 = load ptr, ptr %9, align 8, !tbaa !254
  %46 = load ptr, ptr %10, align 8, !tbaa !254
  %47 = ptrtoint ptr %45 to i64
  %48 = ptrtoint ptr %46 to i64
  %49 = sub i64 %47, %48
  %50 = call noundef ptr @memchr(ptr noundef %44, i32 noundef 10, i64 noundef %49) #20
  store ptr %50, ptr %10, align 8, !tbaa !254
  %51 = icmp ne ptr %50, null
  br i1 %51, label %53, label %52

52:                                               ; preds = %43
  call void @llvm.lifetime.end.p0(i64 8, ptr %10) #16
  br label %67

53:                                               ; preds = %43
  %54 = load ptr, ptr %10, align 8, !tbaa !254
  %55 = getelementptr inbounds nuw i8, ptr %54, i32 1
  store ptr %55, ptr %10, align 8, !tbaa !254
  %56 = load ptr, ptr %9, align 8, !tbaa !254
  %57 = icmp ult ptr %55, %56
  br i1 %57, label %58, label %66

58:                                               ; preds = %53
  %59 = getelementptr inbounds nuw %struct.ImGuiTextIndex, ptr %12, i32 0, i32 0
  call void @llvm.lifetime.start.p0(i64 4, ptr %11) #16
  %60 = load ptr, ptr %10, align 8, !tbaa !254
  %61 = load ptr, ptr %6, align 8, !tbaa !254
  %62 = ptrtoint ptr %60 to i64
  %63 = ptrtoint ptr %61 to i64
  %64 = sub i64 %62, %63
  %65 = trunc i64 %64 to i32
  store i32 %65, ptr %11, align 4, !tbaa !117
  call void @_ZN8ImVectorIiE9push_backERKi(ptr noundef nonnull align 8 dereferenceable(16) %59, ptr noundef nonnull align 4 dereferenceable(4) %11)
  call void @llvm.lifetime.end.p0(i64 4, ptr %11) #16
  br label %66

66:                                               ; preds = %58, %53
  br label %43, !llvm.loop !370

67:                                               ; preds = %52
  %68 = getelementptr inbounds nuw %struct.ImGuiTextIndex, ptr %12, i32 0, i32 1
  %69 = load i32, ptr %68, align 8, !tbaa !369
  %70 = load i32, ptr %8, align 4, !tbaa !117
  %71 = call noundef i32 @_ZL5ImMaxIiET_S0_S0_(i32 noundef %69, i32 noundef %70)
  %72 = getelementptr inbounds nuw %struct.ImGuiTextIndex, ptr %12, i32 0, i32 1
  store i32 %71, ptr %72, align 8, !tbaa !369
  call void @llvm.lifetime.end.p0(i64 8, ptr %9) #16
  br label %73

73:                                               ; preds = %67, %16
  ret void
}