; Function Attrs: mustprogress uwtable
define dso_local void @_ZN14ImGuiTextIndex6appendEPKcii(ptr noundef nonnull align 8 dereferenceable(20) %0, ptr noundef %1, i32 noundef %2, i32 noundef %3) local_unnamed_addr #0 align 2 {
  %5 = alloca i32, align 4
  %6 = icmp eq i32 %2, %3
  br i1 %6, label %39, label %7

7:                                                ; preds = %4
  %8 = getelementptr inbounds nuw i8, ptr %0, i64 16
  %9 = load i32, ptr %8, align 8, !tbaa !300
  %10 = icmp eq i32 %9, 0
  br i1 %10, label %17, label %11

11:                                               ; preds = %7
  %12 = sext i32 %9 to i64
  %13 = getelementptr i8, ptr %1, i64 %12
  %14 = getelementptr i8, ptr %13, i64 -1
  %15 = load i8, ptr %14, align 1, !tbaa !206
  %16 = icmp eq i8 %15, 10
  br i1 %16, label %17, label %18

17:                                               ; preds = %11, %7
  tail call void @_ZN8ImVectorIiE9push_backERKi(ptr noundef nonnull align 8 dereferenceable(16) %0, ptr noundef nonnull align 4 dereferenceable(4) %8)
  br label %18

18:                                               ; preds = %17, %11
  %19 = sext i32 %3 to i64
  %20 = getelementptr inbounds i8, ptr %1, i64 %19
  %21 = sext i32 %2 to i64
  %22 = getelementptr inbounds i8, ptr %1, i64 %21
  %23 = ptrtoint ptr %20 to i64
  %gepdiff = sub nsw i64 %19, %21
  %24 = tail call noundef ptr @memchr(ptr noundef %22, i32 noundef 10, i64 noundef %gepdiff) #62
  %.not20 = icmp eq ptr %24, null
  br i1 %.not20, label %._crit_edge, label %.lr.ph

.lr.ph:                                           ; preds = %18
  %25 = ptrtoint ptr %1 to i64
  br label %28

._crit_edge:                                      ; preds = %36, %18
  %26 = load i32, ptr %8, align 8, !tbaa !300
  %27 = call noundef i32 @llvm.smax.i32(i32 %26, i32 %3)
  store i32 %27, ptr %8, align 8, !tbaa !300
  br label %39

28:                                               ; preds = %.lr.ph, %36
  %29 = phi ptr [ %24, %.lr.ph ], [ %38, %36 ]
  %30 = getelementptr inbounds nuw i8, ptr %29, i64 1
  %31 = icmp ult ptr %30, %20
  br i1 %31, label %32, label %._crit_edge21

._crit_edge21:                                    ; preds = %28
  %.pre = ptrtoint ptr %30 to i64
  br label %36

32:                                               ; preds = %28
  call void @llvm.lifetime.start.p0(i64 4, ptr nonnull %5) #44
  %33 = ptrtoint ptr %30 to i64
  %34 = sub i64 %33, %25
  %35 = trunc i64 %34 to i32
  store i32 %35, ptr %5, align 4, !tbaa !221
  call void @_ZN8ImVectorIiE9push_backERKi(ptr noundef nonnull align 8 dereferenceable(16) %0, ptr noundef nonnull align 4 dereferenceable(4) %5)
  call void @llvm.lifetime.end.p0(i64 4, ptr nonnull %5) #44
  br label %36

36:                                               ; preds = %._crit_edge21, %32
  %.pre-phi = phi i64 [ %.pre, %._crit_edge21 ], [ %33, %32 ]
  %37 = sub i64 %23, %.pre-phi
  %38 = call noundef ptr @memchr(ptr noundef nonnull %30, i32 noundef 10, i64 noundef %37) #62
  %.not = icmp eq ptr %38, null
  br i1 %.not, label %._crit_edge, label %28, !llvm.loop !301

39:                                               ; preds = %4, %._crit_edge
  ret void
}